target datalayout = "e-m:e-p270:32:32-p271:32:32-p272:64:64-i64:64-i128:128-f80:128-n8:16:32:64-S128"
target triple = "x86_64-pc-linux-gnu"

%union.stbcc__global_clumpid = type { %struct.anon }
%struct.anon = type { i32 }
%struct.st_stbcc_grid = type { i32, i32, i32, i32, i32, [1024 x [128 x i8]], [1024 x [1024 x i16]], [32 x [32 x %struct.stbcc__cluster]] }
%struct.stbcc__cluster = type { i16, i8, i8, [512 x %struct.stbcc__clump], [128 x %struct.stbcc__relative_clumpid] }
%struct.stbcc__clump = type { %union.stbcc__global_clumpid, i8, i8, i8, i8 }
%struct.stbcc__relative_clumpid = type { i16 }

; Function Attrs: nounwind uwtable
define void @stbcc__remove_clump_connection(ptr noundef %0, i32 noundef %1, i32 noundef %2, i32 noundef %3, i32 noundef %4) #0 {
  %6 = alloca ptr, align 8
  %7 = alloca i32, align 4
  %8 = alloca i32, align 4
  %9 = alloca i32, align 4
  %10 = alloca i32, align 4
  %11 = alloca ptr, align 8
  %12 = alloca ptr, align 8
  %13 = alloca ptr, align 8
  %14 = alloca i32, align 4
  %15 = alloca i32, align 4
  %16 = alloca i32, align 4
  %17 = alloca i32, align 4
  %18 = alloca i32, align 4
  %19 = alloca i16, align 2
  %20 = alloca i16, align 2
  %21 = alloca %struct.stbcc__relative_clumpid, align 2
  store ptr %0, ptr %6, align 8, !tbaa !3
  store i32 %1, ptr %7, align 4, !tbaa !8
  store i32 %2, ptr %8, align 4, !tbaa !8
  store i32 %3, ptr %9, align 4, !tbaa !8
  store i32 %4, ptr %10, align 4, !tbaa !8
  call void @llvm.lifetime.start.p0(i64 8, ptr %11) #4
  call void @llvm.lifetime.start.p0(i64 8, ptr %12) #4
  call void @llvm.lifetime.start.p0(i64 8, ptr %13) #4
  call void @llvm.lifetime.start.p0(i64 4, ptr %14) #4
  call void @llvm.lifetime.start.p0(i64 4, ptr %15) #4
  %22 = load i32, ptr %7, align 4, !tbaa !8
  %23 = ashr i32 %22, 5
  store i32 %23, ptr %15, align 4, !tbaa !8
  call void @llvm.lifetime.start.p0(i64 4, ptr %16) #4
  %24 = load i32, ptr %8, align 4, !tbaa !8
  %25 = ashr i32 %24, 5
  store i32 %25, ptr %16, align 4, !tbaa !8
  call void @llvm.lifetime.start.p0(i64 4, ptr %17) #4
  %26 = load i32, ptr %9, align 4, !tbaa !8
  %27 = ashr i32 %26, 5
  store i32 %27, ptr %17, align 4, !tbaa !8
  call void @llvm.lifetime.start.p0(i64 4, ptr %18) #4
  %28 = load i32, ptr %10, align 4, !tbaa !8
  %29 = ashr i32 %28, 5
  store i32 %29, ptr %18, align 4, !tbaa !8
  call void @llvm.lifetime.start.p0(i64 2, ptr %19) #4
  %30 = load ptr, ptr %6, align 8, !tbaa !3
  %31 = getelementptr inbounds nuw %struct.st_stbcc_grid, ptr %30, i32 0, i32 6
  %32 = load i32, ptr %8, align 4, !tbaa !8
  %33 = sext i32 %32 to i64
  %34 = getelementptr inbounds [1024 x [1024 x i16]], ptr %31, i64 0, i64 %33
  %35 = load i32, ptr %7, align 4, !tbaa !8
  %36 = sext i32 %35 to i64
  %37 = getelementptr inbounds [1024 x i16], ptr %34, i64 0, i64 %36
  %38 = load i16, ptr %37, align 2, !tbaa !10
  store i16 %38, ptr %19, align 2, !tbaa !10
  call void @llvm.lifetime.start.p0(i64 2, ptr %20) #4
  %39 = load ptr, ptr %6, align 8, !tbaa !3
  %40 = getelementptr inbounds nuw %struct.st_stbcc_grid, ptr %39, i32 0, i32 6
  %41 = load i32, ptr %10, align 4, !tbaa !8
  %42 = sext i32 %41 to i64
  %43 = getelementptr inbounds [1024 x [1024 x i16]], ptr %40, i64 0, i64 %42
  %44 = load i32, ptr %9, align 4, !tbaa !8
  %45 = sext i32 %44 to i64
  %46 = getelementptr inbounds [1024 x i16], ptr %43, i64 0, i64 %45
  %47 = load i16, ptr %46, align 2, !tbaa !10
  store i16 %47, ptr %20, align 2, !tbaa !10
  call void @llvm.lifetime.start.p0(i64 2, ptr %21) #4
  %48 = load i16, ptr %20, align 2, !tbaa !10
  %49 = load i16, ptr %21, align 2
  %50 = and i16 %48, 4095
  %51 = and i16 %49, -4096
  %52 = or i16 %51, %50
  store i16 %52, ptr %21, align 2
  %53 = load i32, ptr %9, align 4, !tbaa !8
  %54 = load i32, ptr %7, align 4, !tbaa !8
  %55 = sub nsw i32 %53, %54
  %56 = trunc i32 %55 to i16
  %57 = load i16, ptr %21, align 2
  %58 = and i16 %56, 3
  %59 = shl i16 %58, 12
  %60 = and i16 %57, -12289
  %61 = or i16 %60, %59
  store i16 %61, ptr %21, align 2
  %62 = load i32, ptr %10, align 4, !tbaa !8
  %63 = load i32, ptr %8, align 4, !tbaa !8
  %64 = sub nsw i32 %62, %63
  %65 = trunc i32 %64 to i16
  %66 = load i16, ptr %21, align 2
  %67 = and i16 %65, 3
  %68 = shl i16 %67, 14
  %69 = and i16 %66, 16383
  %70 = or i16 %69, %68
  store i16 %70, ptr %21, align 2
  %71 = load ptr, ptr %6, align 8, !tbaa !3
  %72 = getelementptr inbounds nuw %struct.st_stbcc_grid, ptr %71, i32 0, i32 7
  %73 = load i32, ptr %16, align 4, !tbaa !8
  %74 = sext i32 %73 to i64
  %75 = getelementptr inbounds [32 x [32 x %struct.stbcc__cluster]], ptr %72, i64 0, i64 %74
  %76 = load i32, ptr %15, align 4, !tbaa !8
  %77 = sext i32 %76 to i64
  %78 = getelementptr inbounds [32 x %struct.stbcc__cluster], ptr %75, i64 0, i64 %77
  store ptr %78, ptr %11, align 8, !tbaa !14
  %79 = load ptr, ptr %11, align 8, !tbaa !14
  %80 = getelementptr inbounds nuw %struct.stbcc__cluster, ptr %79, i32 0, i32 3
  %81 = load i16, ptr %19, align 2, !tbaa !10
  %82 = zext i16 %81 to i64
  %83 = getelementptr inbounds nuw [512 x %struct.stbcc__clump], ptr %80, i64 0, i64 %82
  store ptr %83, ptr %12, align 8, !tbaa !14
  %84 = load ptr, ptr %11, align 8, !tbaa !14
  %85 = getelementptr inbounds nuw %struct.stbcc__cluster, ptr %84, i32 0, i32 4
  %86 = load ptr, ptr %12, align 8, !tbaa !14
  %87 = getelementptr inbounds nuw %struct.stbcc__clump, ptr %86, i32 0, i32 3
  %88 = load i8, ptr %87, align 2, !tbaa !25
  %89 = zext i8 %88 to i64
  %90 = getelementptr inbounds nuw [128 x %struct.stbcc__relative_clumpid], ptr %85, i64 0, i64 %89
  store ptr %90, ptr %13, align 8, !tbaa !14
  store i32 0, ptr %14, align 4, !tbaa !8
  br label %91

91:                                               ; preds = %138, %5
  %92 = load i32, ptr %14, align 4, !tbaa !8
  %93 = load ptr, ptr %12, align 8, !tbaa !14
  %94 = getelementptr inbounds nuw %struct.stbcc__clump, ptr %93, i32 0, i32 1
  %95 = load i8, ptr %94, align 4, !tbaa !27
  %96 = zext i8 %95 to i32
  %97 = icmp slt i32 %92, %96
  br i1 %97, label %98, label %141

98:                                               ; preds = %91
  %99 = load i16, ptr %21, align 2
  %100 = and i16 %99, 4095
  %101 = zext i16 %100 to i32
  %102 = load ptr, ptr %13, align 8, !tbaa !14
  %103 = load i32, ptr %14, align 4, !tbaa !8
  %104 = sext i32 %103 to i64
  %105 = getelementptr inbounds %struct.stbcc__relative_clumpid, ptr %102, i64 %104
  %106 = load i16, ptr %105, align 2
  %107 = and i16 %106, 4095
  %108 = zext i16 %107 to i32
  %109 = icmp eq i32 %101, %108
  br i1 %109, label %110, label %137

110:                                              ; preds = %98
  %111 = load i16, ptr %21, align 2
  %112 = shl i16 %111, 2
  %113 = ashr i16 %112, 14
  %114 = sext i16 %113 to i32
  %115 = load ptr, ptr %13, align 8, !tbaa !14
  %116 = load i32, ptr %14, align 4, !tbaa !8
  %117 = sext i32 %116 to i64
  %118 = getelementptr inbounds %struct.stbcc__relative_clumpid, ptr %115, i64 %117
  %119 = load i16, ptr %118, align 2
  %120 = shl i16 %119, 2
  %121 = ashr i16 %120, 14
  %122 = sext i16 %121 to i32
  %123 = icmp eq i32 %114, %122
  br i1 %123, label %124, label %137

124:                                              ; preds = %110
  %125 = load i16, ptr %21, align 2
  %126 = ashr i16 %125, 14
  %127 = sext i16 %126 to i32
  %128 = load ptr, ptr %13, align 8, !tbaa !14
  %129 = load i32, ptr %14, align 4, !tbaa !8
  %130 = sext i32 %129 to i64
  %131 = getelementptr inbounds %struct.stbcc__relative_clumpid, ptr %128, i64 %130
  %132 = load i16, ptr %131, align 2
  %133 = ashr i16 %132, 14
  %134 = sext i16 %133 to i32
  %135 = icmp eq i32 %127, %134
  br i1 %135, label %136, label %137

136:                                              ; preds = %124
  br label %141

137:                                              ; preds = %124, %110, %98
  br label %138

138:                                              ; preds = %137
  %139 = load i32, ptr %14, align 4, !tbaa !8
  %140 = add nsw i32 %139, 1
  store i32 %140, ptr %14, align 4, !tbaa !8
  br label %91, !llvm.loop !82

141:                                              ; preds = %136, %91
  %142 = load i32, ptr %14, align 4, !tbaa !8
  %143 = load ptr, ptr %12, align 8, !tbaa !14
  %144 = getelementptr inbounds nuw %struct.stbcc__clump, ptr %143, i32 0, i32 1
  %145 = load i8, ptr %144, align 4, !tbaa !27
  %146 = zext i8 %145 to i32
  %147 = icmp slt i32 %142, %146
  br i1 %147, label %148, label %160

148:                                              ; preds = %141
  %149 = load ptr, ptr %13, align 8, !tbaa !14
  %150 = load i32, ptr %14, align 4, !tbaa !8
  %151 = sext i32 %150 to i64
  %152 = getelementptr inbounds %struct.stbcc__relative_clumpid, ptr %149, i64 %151
  %153 = load ptr, ptr %13, align 8, !tbaa !14
  %154 = load ptr, ptr %12, align 8, !tbaa !14
  %155 = getelementptr inbounds nuw %struct.stbcc__clump, ptr %154, i32 0, i32 1
  %156 = load i8, ptr %155, align 4, !tbaa !27
  %157 = add i8 %156, -1
  store i8 %157, ptr %155, align 4, !tbaa !27
  %158 = zext i8 %157 to i64
  %159 = getelementptr inbounds nuw %struct.stbcc__relative_clumpid, ptr %153, i64 %158
  call void @llvm.memcpy.p0.p0.i64(ptr align 2 %152, ptr align 2 %159, i64 2, i1 false), !tbaa.struct !81
  br label %161

160:                                              ; preds = %141
  br label %161

161:                                              ; preds = %160, %148
  call void @llvm.lifetime.end.p0(i64 2, ptr %21) #4
  call void @llvm.lifetime.end.p0(i64 2, ptr %20) #4
  call void @llvm.lifetime.end.p0(i64 2, ptr %19) #4
  call void @llvm.lifetime.end.p0(i64 4, ptr %18) #4
  call void @llvm.lifetime.end.p0(i64 4, ptr %17) #4
  call void @llvm.lifetime.end.p0(i64 4, ptr %16) #4
  call void @llvm.lifetime.end.p0(i64 4, ptr %15) #4
  call void @llvm.lifetime.end.p0(i64 4, ptr %14) #4
  call void @llvm.lifetime.end.p0(i64 8, ptr %13) #4
  call void @llvm.lifetime.end.p0(i64 8, ptr %12) #4
  call void @llvm.lifetime.end.p0(i64 8, ptr %11) #4
  ret void
}