; Function Attrs: nofree norecurse nosync nounwind memory(argmem: readwrite) uwtable
define void @stbcc__remove_clump_connection(ptr noundef captures(none) %0, i32 noundef %1, i32 noundef %2, i32 noundef %3, i32 noundef %4) local_unnamed_addr #4 {
  %6 = ashr i32 %1, 5
  %7 = ashr i32 %2, 5
  %8 = getelementptr inbounds nuw i8, ptr %0, i64 131092
  %9 = sext i32 %2 to i64
  %10 = sext i32 %1 to i64
  %11 = getelementptr inbounds [1024 x [1024 x i16]], ptr %8, i64 0, i64 %9, i64 %10
  %12 = load i16, ptr %11, align 2, !tbaa !3
  %13 = sext i32 %4 to i64
  %14 = sext i32 %3 to i64
  %15 = getelementptr inbounds [1024 x [1024 x i16]], ptr %8, i64 0, i64 %13, i64 %14
  %16 = load i16, ptr %15, align 2, !tbaa !3
  %17 = getelementptr inbounds nuw i8, ptr %0, i64 2228244
  %18 = sext i32 %7 to i64
  %19 = sext i32 %6 to i64
  %20 = getelementptr inbounds [32 x [32 x %struct.stbcc__cluster]], ptr %17, i64 0, i64 %18, i64 %19
  %21 = getelementptr inbounds nuw i8, ptr %20, i64 4
  %22 = zext i16 %12 to i64
  %23 = getelementptr inbounds nuw [512 x %struct.stbcc__clump], ptr %21, i64 0, i64 %22
  %24 = getelementptr inbounds nuw i8, ptr %20, i64 4100
  %25 = getelementptr inbounds nuw i8, ptr %23, i64 6
  %26 = load i8, ptr %25, align 2, !tbaa !14
  %27 = zext i8 %26 to i64
  %28 = getelementptr inbounds nuw [128 x %struct.stbcc__relative_clumpid], ptr %24, i64 0, i64 %27
  %29 = getelementptr inbounds nuw i8, ptr %23, i64 4
  %30 = load i8, ptr %29, align 4, !tbaa !16
  %.not = icmp eq i8 %30, 0
  br i1 %.not, label %.loopexit, label %.lr.ph

.lr.ph:                                           ; preds = %5
  %31 = sub nsw i32 %4, %2
  %32 = sub nsw i32 %3, %1
  %33 = shl i32 %32, 30
  %34 = ashr exact i32 %33, 30
  %35 = shl i32 %31, 30
  %36 = ashr exact i32 %35, 30
  %wide.trip.count = zext i8 %30 to i64
  br label %37

37:                                               ; preds = %.lr.ph, %52
  %indvars.iv = phi i64 [ 0, %.lr.ph ], [ %indvars.iv.next, %52 ]
  %38 = getelementptr inbounds nuw %struct.stbcc__relative_clumpid, ptr %28, i64 %indvars.iv
  %39 = load i16, ptr %38, align 2
  %40 = xor i16 %39, %16
  %41 = and i16 %40, 4095
  %42 = icmp eq i16 %41, 0
  br i1 %42, label %43, label %52

43:                                               ; preds = %37
  %44 = shl i16 %39, 2
  %45 = ashr i16 %44, 14
  %46 = sext i16 %45 to i32
  %47 = icmp eq i32 %34, %46
  br i1 %47, label %48, label %52

48:                                               ; preds = %43
  %49 = ashr i16 %39, 14
  %50 = sext i16 %49 to i32
  %51 = icmp eq i32 %36, %50
  br i1 %51, label %53, label %52

52:                                               ; preds = %37, %43, %48
  %indvars.iv.next = add nuw nsw i64 %indvars.iv, 1
  %exitcond.not = icmp eq i64 %indvars.iv.next, %wide.trip.count
  br i1 %exitcond.not, label %.loopexit, label %37, !llvm.loop !35

53:                                               ; preds = %48
  %54 = and i64 %indvars.iv, 4294967295
  %55 = getelementptr inbounds nuw %struct.stbcc__relative_clumpid, ptr %28, i64 %54
  %56 = add i8 %30, -1
  store i8 %56, ptr %29, align 4, !tbaa !16
  %57 = zext i8 %56 to i64
  %58 = getelementptr inbounds nuw %struct.stbcc__relative_clumpid, ptr %28, i64 %57
  %59 = load i16, ptr %58, align 2, !tbaa !7
  store i16 %59, ptr %55, align 2, !tbaa !7
  br label %.loopexit

.loopexit:                                        ; preds = %52, %5, %53
  ret void
}